(dp1
S'verzija'
p2
(dp3
S'msg'
p4
csupybot.ircmsgs
IrcMsg
p5
(S':DonVitoCorleone!~KG@Drzi.Prijatelje.BlizuA.Neprijatelje.Jos.Blize PRIVMSG eRepublikBot :scheduler repeat Verzija 86400 ircquote privmsg DonVitoCorleone :[version]\n'
p6
tRp7
sS'type'
p8
S'repeat'
p9
sS'command'
p10
Vircquote privmsg DonVitoCorleone : The current (running) version of this Supybot is 0.83.4.1+limnoria installed on 2013-10-08T01:52:40+0000. The newest versions available online are 2013-11-10T10:45:01 (in testing), 2013-11-03T18:30:52 (in master).
p11
sS'time'
p12
I86400
ss.